target datalayout = "e-m:e-p270:32:32-p271:32:32-p272:64:64-i64:64-i128:128-f80:128-n8:16:32:64-S128"
target triple = "x86_64-pc-linux-gnu"

@proto_register_dlsw.ett = internal global [7 x ptr] [ptr @ett_dlsw, ptr @ett_dlsw_header, ptr @ett_dlsw_fc, ptr @ett_dlsw_sspflags, ptr @ett_dlsw_data, ptr @ett_dlsw_vector, ptr @ett_dlsw_sap_list_support], align 16
@.str.140 = private unnamed_addr constant [20 x i8] c"Data Link SWitching\00", align 1
@.str.141 = private unnamed_addr constant [5 x i8] c"DLSw\00", align 1
@.str.142 = private unnamed_addr constant [5 x i8] c"dlsw\00", align 1
@proto_dlsw = internal global i32 0, align 4
@.str.143 = private unnamed_addr constant [9 x i8] c"dlsw.udp\00", align 1
@dlsw_udp_handle = internal global ptr null, align 8
@.str.144 = private unnamed_addr constant [9 x i8] c"dlsw.tcp\00", align 1
@dlsw_tcp_handle = internal global ptr null, align 8

; Function Attrs: null_pointer_is_valid sspstrong uwtable
define hidden void @proto_register_dlsw() #0 {
  %1 = alloca ptr, align 8
  call void @llvm.lifetime.start.p0(i64 8, ptr %1) #4
  %2 = call i32 @proto_register_protocol(ptr noundef @.str.140, ptr noundef @.str.141, ptr noundef @.str.142)
  store i32 %2, ptr @proto_dlsw, align 4
  %3 = load i32, ptr @proto_dlsw, align 4
  call void @proto_register_field_array(i32 noundef %3, ptr noundef @proto_register_dlsw.hf, i32 noundef 68)
  call void @proto_register_subtree_array(ptr noundef @proto_register_dlsw.ett, i32 noundef 7)
  %4 = load i32, ptr @proto_dlsw, align 4
  %5 = call ptr @expert_register_protocol(i32 noundef %4)
  store ptr %5, ptr %1, align 8
  %6 = load ptr, ptr %1, align 8
  call void @expert_register_field_array(ptr noundef %6, ptr noundef @proto_register_dlsw.ei, i32 noundef 3)
  %7 = load i32, ptr @proto_dlsw, align 4
  %8 = call ptr @register_dissector(ptr noundef @.str.143, ptr noundef @dissect_dlsw_udp, i32 noundef %7)
  store ptr %8, ptr @dlsw_udp_handle, align 8
  %9 = load i32, ptr @proto_dlsw, align 4
  %10 = call ptr @register_dissector(ptr noundef @.str.144, ptr noundef @dissect_dlsw_tcp, i32 noundef %9)
  store ptr %10, ptr @dlsw_tcp_handle, align 8
  call void @llvm.lifetime.end.p0(i64 8, ptr %1) #4
  ret void
}